target datalayout = "e-m:e-p270:32:32-p271:32:32-p272:64:64-i64:64-i128:128-f80:128-n8:16:32:64-S128"
target triple = "x86_64-pc-linux-gnu"

%class.cmCTestP4 = type { %class.cmCTestGlobalVC, %"class.std::vector", %"class.std::map.9", %"class.std::vector" }
%class.cmCTestGlobalVC = type { %class.cmCTestVC.base, %"class.std::map", %"class.std::__cxx11::basic_string", %"class.std::__cxx11::basic_string", %"struct.cmCTestVC::Revision", %"class.std::__cxx11::list" }
%class.cmCTestVC.base = type <{ ptr, ptr, ptr, %"class.std::__cxx11::basic_string", %"class.std::__cxx11::basic_string", %"class.std::__cxx11::basic_string", %"struct.cmCTestVC::Revision", [3 x i32] }>
%"class.std::map" = type { %"class.std::_Rb_tree" }
%"class.std::_Rb_tree" = type { %"struct.std::_Rb_tree<std::__cxx11::basic_string<char>, std::pair<const std::__cxx11::basic_string<char>, cmCTestGlobalVC::Directory>, std::_Select1st<std::pair<const std::__cxx11::basic_string<char>, cmCTestGlobalVC::Directory>>, std::less<std::__cxx11::basic_string<char>>>::_Rb_tree_impl" }
%"struct.std::_Rb_tree<std::__cxx11::basic_string<char>, std::pair<const std::__cxx11::basic_string<char>, cmCTestGlobalVC::Directory>, std::_Select1st<std::pair<const std::__cxx11::basic_string<char>, cmCTestGlobalVC::Directory>>, std::less<std::__cxx11::basic_string<char>>>::_Rb_tree_impl" = type { %"struct.std::_Rb_tree_key_compare", %"struct.std::_Rb_tree_header" }
%"struct.std::_Rb_tree_key_compare" = type { %"struct.std::less" }
%"struct.std::less" = type { i8 }
%"struct.std::_Rb_tree_header" = type { %"struct.std::_Rb_tree_node_base", i64 }
%"struct.std::_Rb_tree_node_base" = type { i32, ptr, ptr, ptr }
%"class.std::__cxx11::basic_string" = type { %"struct.std::__cxx11::basic_string<char>::_Alloc_hider", i64, %union.anon }
%"struct.std::__cxx11::basic_string<char>::_Alloc_hider" = type { ptr }
%union.anon = type { i64, [8 x i8] }
%"struct.cmCTestVC::Revision" = type { %"class.std::__cxx11::basic_string", %"class.std::__cxx11::basic_string", %"class.std::__cxx11::basic_string", %"class.std::__cxx11::basic_string", %"class.std::__cxx11::basic_string", %"class.std::__cxx11::basic_string", %"class.std::__cxx11::basic_string", %"class.std::__cxx11::basic_string" }
%"class.std::__cxx11::list" = type { %"class.std::__cxx11::_List_base" }
%"class.std::__cxx11::_List_base" = type { %"struct.std::__cxx11::_List_base<cmCTestVC::Revision, std::allocator<cmCTestVC::Revision>>::_List_impl" }
%"struct.std::__cxx11::_List_base<cmCTestVC::Revision, std::allocator<cmCTestVC::Revision>>::_List_impl" = type { %"struct.std::__detail::_List_node_header" }
%"struct.std::__detail::_List_node_header" = type { %"struct.std::__detail::_List_node_base", i64 }
%"struct.std::__detail::_List_node_base" = type { ptr, ptr }
%"class.std::map.9" = type { %"class.std::_Rb_tree.10" }
%"class.std::_Rb_tree.10" = type { %"struct.std::_Rb_tree<std::__cxx11::basic_string<char>, std::pair<const std::__cxx11::basic_string<char>, cmCTestP4::User>, std::_Select1st<std::pair<const std::__cxx11::basic_string<char>, cmCTestP4::User>>, std::less<std::__cxx11::basic_string<char>>>::_Rb_tree_impl" }
%"struct.std::_Rb_tree<std::__cxx11::basic_string<char>, std::pair<const std::__cxx11::basic_string<char>, cmCTestP4::User>, std::_Select1st<std::pair<const std::__cxx11::basic_string<char>, cmCTestP4::User>>, std::less<std::__cxx11::basic_string<char>>>::_Rb_tree_impl" = type { %"struct.std::_Rb_tree_key_compare", %"struct.std::_Rb_tree_header" }
%"class.std::vector" = type { %"struct.std::_Vector_base" }
%"struct.std::_Vector_base" = type { %"struct.std::_Vector_base<std::__cxx11::basic_string<char>, std::allocator<std::__cxx11::basic_string<char>>>::_Vector_impl" }
%"struct.std::_Vector_base<std::__cxx11::basic_string<char>, std::allocator<std::__cxx11::basic_string<char>>>::_Vector_impl" = type { %"struct.std::_Vector_base<std::__cxx11::basic_string<char>, std::allocator<std::__cxx11::basic_string<char>>>::_Vector_impl_data" }
%"struct.std::_Vector_base<std::__cxx11::basic_string<char>, std::allocator<std::__cxx11::basic_string<char>>>::_Vector_impl_data" = type { ptr, ptr, ptr }
%class.cmCTestVC = type <{ ptr, ptr, ptr, %"class.std::__cxx11::basic_string", %"class.std::__cxx11::basic_string", %"class.std::__cxx11::basic_string", %"struct.cmCTestVC::Revision", [3 x i32], [4 x i8] }>

; Function Attrs: noreturn nounwind uwtable
define linkonce_odr hidden void @__clang_call_terminate(ptr noundef %0) #9 comdat {
  %2 = call ptr @__cxa_begin_catch(ptr %0) #3
  call void @_ZSt9terminatev() #15
  unreachable
}

; Function Attrs: mustprogress nounwind uwtable
define linkonce_odr dso_local void @_ZNSt15_Rb_tree_header8_M_resetEv(ptr noundef nonnull align 8 dereferenceable(40) %0) #5 comdat align 2 {
  %2 = alloca ptr, align 8
  store ptr %0, ptr %2, align 8
  %3 = load ptr, ptr %2, align 8
  %4 = getelementptr inbounds %"struct.std::_Rb_tree_header", ptr %3, i32 0, i32 0
  %5 = getelementptr inbounds %"struct.std::_Rb_tree_node_base", ptr %4, i32 0, i32 1
  store ptr null, ptr %5, align 8
  %6 = getelementptr inbounds %"struct.std::_Rb_tree_header", ptr %3, i32 0, i32 0
  %7 = getelementptr inbounds %"struct.std::_Rb_tree_header", ptr %3, i32 0, i32 0
  %8 = getelementptr inbounds %"struct.std::_Rb_tree_node_base", ptr %7, i32 0, i32 2
  store ptr %6, ptr %8, align 8
  %9 = getelementptr inbounds %"struct.std::_Rb_tree_header", ptr %3, i32 0, i32 0
  %10 = getelementptr inbounds %"struct.std::_Rb_tree_header", ptr %3, i32 0, i32 0
  %11 = getelementptr inbounds %"struct.std::_Rb_tree_node_base", ptr %10, i32 0, i32 3
  store ptr %9, ptr %11, align 8
  %12 = getelementptr inbounds %"struct.std::_Rb_tree_header", ptr %3, i32 0, i32 1
  store i64 0, ptr %12, align 8
  ret void
}

; Function Attrs: mustprogress nounwind uwtable
define linkonce_odr dso_local void @_ZNSt15__new_allocatorISt13_Rb_tree_nodeISt4pairIKNSt7__cxx1112basic_stringIcSt11char_traitsIcESaIcEEEN9cmCTestP44UserEEEEC2Ev(ptr noundef nonnull align 1 dereferenceable(1) %0) unnamed_addr #5 comdat align 2 {
  %2 = alloca ptr, align 8
  store ptr %0, ptr %2, align 8
  ret void
}

; Function Attrs: mustprogress nounwind uwtable
define linkonce_odr dso_local void @_ZNSt15__new_allocatorINSt7__cxx1112basic_stringIcSt11char_traitsIcESaIcEEEEC2Ev(ptr noundef nonnull align 1 dereferenceable(1) %0) unnamed_addr #5 comdat align 2 {
  %2 = alloca ptr, align 8
  store ptr %0, ptr %2, align 8
  ret void
}

; Function Attrs: mustprogress nounwind uwtable
define linkonce_odr dso_local void @_ZNSt15_Rb_tree_headerC2Ev(ptr noundef nonnull align 8 dereferenceable(40) %0) unnamed_addr #5 comdat align 2 personality ptr @__gxx_personality_v0 {
  %2 = alloca ptr, align 8
  store ptr %0, ptr %2, align 8
  %3 = load ptr, ptr %2, align 8
  %4 = getelementptr inbounds %"struct.std::_Rb_tree_header", ptr %3, i32 0, i32 0
  %5 = getelementptr inbounds %"struct.std::_Rb_tree_node_base", ptr %4, i32 0, i32 0
  store i32 0, ptr %5, align 8
  invoke void @_ZNSt15_Rb_tree_header8_M_resetEv(ptr noundef nonnull align 8 dereferenceable(40) %3)
          to label %6 unwind label %7

6:                                                ; preds = %1
  ret void

7:                                                ; preds = %1
  %8 = landingpad { ptr, i32 }
          catch ptr null
  %9 = extractvalue { ptr, i32 } %8, 0
  call void @__clang_call_terminate(ptr %9) #15
  unreachable
}

; Function Attrs: mustprogress nounwind uwtable
define linkonce_odr dso_local void @_ZNSt20_Rb_tree_key_compareISt4lessINSt7__cxx1112basic_stringIcSt11char_traitsIcESaIcEEEEEC2Ev(ptr noundef nonnull align 1 dereferenceable(1) %0) unnamed_addr #5 comdat align 2 {
  %2 = alloca ptr, align 8
  store ptr %0, ptr %2, align 8
  ret void
}

; Function Attrs: mustprogress nounwind uwtable
define linkonce_odr dso_local void @_ZNSaISt13_Rb_tree_nodeISt4pairIKNSt7__cxx1112basic_stringIcSt11char_traitsIcESaIcEEEN9cmCTestP44UserEEEEC2Ev(ptr noundef nonnull align 1 dereferenceable(1) %0) unnamed_addr #5 comdat align 2 {
  %2 = alloca ptr, align 8
  store ptr %0, ptr %2, align 8
  %3 = load ptr, ptr %2, align 8
  call void @_ZNSt15__new_allocatorISt13_Rb_tree_nodeISt4pairIKNSt7__cxx1112basic_stringIcSt11char_traitsIcESaIcEEEN9cmCTestP44UserEEEEC2Ev(ptr noundef nonnull align 1 dereferenceable(1) %3) #3
  ret void
}

; Function Attrs: mustprogress nounwind uwtable
define linkonce_odr dso_local void @_ZNSt12_Vector_baseINSt7__cxx1112basic_stringIcSt11char_traitsIcESaIcEEESaIS5_EE17_Vector_impl_dataC2Ev(ptr noundef nonnull align 8 dereferenceable(24) %0) unnamed_addr #5 comdat align 2 {
  %2 = alloca ptr, align 8
  store ptr %0, ptr %2, align 8
  %3 = load ptr, ptr %2, align 8
  %4 = getelementptr inbounds %"struct.std::_Vector_base<std::__cxx11::basic_string<char>, std::allocator<std::__cxx11::basic_string<char>>>::_Vector_impl_data", ptr %3, i32 0, i32 0
  store ptr null, ptr %4, align 8
  %5 = getelementptr inbounds %"struct.std::_Vector_base<std::__cxx11::basic_string<char>, std::allocator<std::__cxx11::basic_string<char>>>::_Vector_impl_data", ptr %3, i32 0, i32 1
  store ptr null, ptr %5, align 8
  %6 = getelementptr inbounds %"struct.std::_Vector_base<std::__cxx11::basic_string<char>, std::allocator<std::__cxx11::basic_string<char>>>::_Vector_impl_data", ptr %3, i32 0, i32 2
  store ptr null, ptr %6, align 8
  ret void
}

; Function Attrs: mustprogress nounwind uwtable
define linkonce_odr dso_local void @_ZNSaINSt7__cxx1112basic_stringIcSt11char_traitsIcESaIcEEEEC2Ev(ptr noundef nonnull align 1 dereferenceable(1) %0) unnamed_addr #5 comdat align 2 {
  %2 = alloca ptr, align 8
  store ptr %0, ptr %2, align 8
  %3 = load ptr, ptr %2, align 8
  call void @_ZNSt15__new_allocatorINSt7__cxx1112basic_stringIcSt11char_traitsIcESaIcEEEEC2Ev(ptr noundef nonnull align 1 dereferenceable(1) %3) #3
  ret void
}

; Function Attrs: mustprogress nounwind uwtable
define linkonce_odr dso_local void @_ZNSt8_Rb_treeINSt7__cxx1112basic_stringIcSt11char_traitsIcESaIcEEESt4pairIKS5_N9cmCTestP44UserEESt10_Select1stISA_ESt4lessIS5_ESaISA_EE13_Rb_tree_implISE_Lb1EEC2Ev(ptr noundef nonnull align 8 dereferenceable(48) %0) unnamed_addr #5 comdat align 2 {
  %2 = alloca ptr, align 8
  store ptr %0, ptr %2, align 8
  %3 = load ptr, ptr %2, align 8
  call void @_ZNSaISt13_Rb_tree_nodeISt4pairIKNSt7__cxx1112basic_stringIcSt11char_traitsIcESaIcEEEN9cmCTestP44UserEEEEC2Ev(ptr noundef nonnull align 1 dereferenceable(1) %3) #3
  call void @_ZNSt20_Rb_tree_key_compareISt4lessINSt7__cxx1112basic_stringIcSt11char_traitsIcESaIcEEEEEC2Ev(ptr noundef nonnull align 1 dereferenceable(1) %3) #3
  %4 = getelementptr inbounds i8, ptr %3, i64 8
  call void @_ZNSt15_Rb_tree_headerC2Ev(ptr noundef nonnull align 8 dereferenceable(40) %4) #3
  ret void
}

; Function Attrs: mustprogress nounwind uwtable
define linkonce_odr dso_local void @_ZNSt12_Vector_baseINSt7__cxx1112basic_stringIcSt11char_traitsIcESaIcEEESaIS5_EE12_Vector_implC2Ev(ptr noundef nonnull align 8 dereferenceable(24) %0) unnamed_addr #5 comdat align 2 {
  %2 = alloca ptr, align 8
  store ptr %0, ptr %2, align 8
  %3 = load ptr, ptr %2, align 8
  call void @_ZNSaINSt7__cxx1112basic_stringIcSt11char_traitsIcESaIcEEEEC2Ev(ptr noundef nonnull align 1 dereferenceable(1) %3) #3
  call void @_ZNSt12_Vector_baseINSt7__cxx1112basic_stringIcSt11char_traitsIcESaIcEEESaIS5_EE17_Vector_impl_dataC2Ev(ptr noundef nonnull align 8 dereferenceable(24) %3) #3
  ret void
}

; Function Attrs: mustprogress nounwind uwtable
define linkonce_odr dso_local void @_ZNSt8_Rb_treeINSt7__cxx1112basic_stringIcSt11char_traitsIcESaIcEEESt4pairIKS5_N9cmCTestP44UserEESt10_Select1stISA_ESt4lessIS5_ESaISA_EEC2Ev(ptr noundef nonnull align 8 dereferenceable(48) %0) unnamed_addr #5 comdat align 2 {
  %2 = alloca ptr, align 8
  store ptr %0, ptr %2, align 8
  %3 = load ptr, ptr %2, align 8
  %4 = getelementptr inbounds %"class.std::_Rb_tree.10", ptr %3, i32 0, i32 0
  call void @_ZNSt8_Rb_treeINSt7__cxx1112basic_stringIcSt11char_traitsIcESaIcEEESt4pairIKS5_N9cmCTestP44UserEESt10_Select1stISA_ESt4lessIS5_ESaISA_EE13_Rb_tree_implISE_Lb1EEC2Ev(ptr noundef nonnull align 8 dereferenceable(48) %4) #3
  ret void
}

; Function Attrs: mustprogress nounwind uwtable
define linkonce_odr dso_local void @_ZNSt12_Vector_baseINSt7__cxx1112basic_stringIcSt11char_traitsIcESaIcEEESaIS5_EEC2Ev(ptr noundef nonnull align 8 dereferenceable(24) %0) unnamed_addr #5 comdat align 2 {
  %2 = alloca ptr, align 8
  store ptr %0, ptr %2, align 8
  %3 = load ptr, ptr %2, align 8
  %4 = getelementptr inbounds %"struct.std::_Vector_base", ptr %3, i32 0, i32 0
  call void @_ZNSt12_Vector_baseINSt7__cxx1112basic_stringIcSt11char_traitsIcESaIcEEESaIS5_EE12_Vector_implC2Ev(ptr noundef nonnull align 8 dereferenceable(24) %4) #3
  ret void
}

; Function Attrs: mustprogress uwtable
define linkonce_odr dso_local noundef nonnull align 8 dereferenceable(256) ptr @_ZN9cmCTestVC8RevisionaSERKS0_(ptr noundef nonnull align 8 dereferenceable(256) %0, ptr noundef nonnull align 8 dereferenceable(256) %1) #4 comdat align 2 {
  %3 = alloca ptr, align 8
  %4 = alloca ptr, align 8
  store ptr %0, ptr %3, align 8
  store ptr %1, ptr %4, align 8
  %5 = load ptr, ptr %3, align 8
  %6 = getelementptr inbounds %"struct.cmCTestVC::Revision", ptr %5, i32 0, i32 0
  %7 = load ptr, ptr %4, align 8
  %8 = getelementptr inbounds %"struct.cmCTestVC::Revision", ptr %7, i32 0, i32 0
  %9 = call noundef nonnull align 8 dereferenceable(32) ptr @_ZNSt7__cxx1112basic_stringIcSt11char_traitsIcESaIcEEaSERKS4_(ptr noundef nonnull align 8 dereferenceable(32) %6, ptr noundef nonnull align 8 dereferenceable(32) %8)
  %10 = getelementptr inbounds %"struct.cmCTestVC::Revision", ptr %5, i32 0, i32 1
  %11 = load ptr, ptr %4, align 8
  %12 = getelementptr inbounds %"struct.cmCTestVC::Revision", ptr %11, i32 0, i32 1
  %13 = call noundef nonnull align 8 dereferenceable(32) ptr @_ZNSt7__cxx1112basic_stringIcSt11char_traitsIcESaIcEEaSERKS4_(ptr noundef nonnull align 8 dereferenceable(32) %10, ptr noundef nonnull align 8 dereferenceable(32) %12)
  %14 = getelementptr inbounds %"struct.cmCTestVC::Revision", ptr %5, i32 0, i32 2
  %15 = load ptr, ptr %4, align 8
  %16 = getelementptr inbounds %"struct.cmCTestVC::Revision", ptr %15, i32 0, i32 2
  %17 = call noundef nonnull align 8 dereferenceable(32) ptr @_ZNSt7__cxx1112basic_stringIcSt11char_traitsIcESaIcEEaSERKS4_(ptr noundef nonnull align 8 dereferenceable(32) %14, ptr noundef nonnull align 8 dereferenceable(32) %16)
  %18 = getelementptr inbounds %"struct.cmCTestVC::Revision", ptr %5, i32 0, i32 3
  %19 = load ptr, ptr %4, align 8
  %20 = getelementptr inbounds %"struct.cmCTestVC::Revision", ptr %19, i32 0, i32 3
  %21 = call noundef nonnull align 8 dereferenceable(32) ptr @_ZNSt7__cxx1112basic_stringIcSt11char_traitsIcESaIcEEaSERKS4_(ptr noundef nonnull align 8 dereferenceable(32) %18, ptr noundef nonnull align 8 dereferenceable(32) %20)
  %22 = getelementptr inbounds %"struct.cmCTestVC::Revision", ptr %5, i32 0, i32 4
  %23 = load ptr, ptr %4, align 8
  %24 = getelementptr inbounds %"struct.cmCTestVC::Revision", ptr %23, i32 0, i32 4
  %25 = call noundef nonnull align 8 dereferenceable(32) ptr @_ZNSt7__cxx1112basic_stringIcSt11char_traitsIcESaIcEEaSERKS4_(ptr noundef nonnull align 8 dereferenceable(32) %22, ptr noundef nonnull align 8 dereferenceable(32) %24)
  %26 = getelementptr inbounds %"struct.cmCTestVC::Revision", ptr %5, i32 0, i32 5
  %27 = load ptr, ptr %4, align 8
  %28 = getelementptr inbounds %"struct.cmCTestVC::Revision", ptr %27, i32 0, i32 5
  %29 = call noundef nonnull align 8 dereferenceable(32) ptr @_ZNSt7__cxx1112basic_stringIcSt11char_traitsIcESaIcEEaSERKS4_(ptr noundef nonnull align 8 dereferenceable(32) %26, ptr noundef nonnull align 8 dereferenceable(32) %28)
  %30 = getelementptr inbounds %"struct.cmCTestVC::Revision", ptr %5, i32 0, i32 6
  %31 = load ptr, ptr %4, align 8
  %32 = getelementptr inbounds %"struct.cmCTestVC::Revision", ptr %31, i32 0, i32 6
  %33 = call noundef nonnull align 8 dereferenceable(32) ptr @_ZNSt7__cxx1112basic_stringIcSt11char_traitsIcESaIcEEaSERKS4_(ptr noundef nonnull align 8 dereferenceable(32) %30, ptr noundef nonnull align 8 dereferenceable(32) %32)
  %34 = getelementptr inbounds %"struct.cmCTestVC::Revision", ptr %5, i32 0, i32 7
  %35 = load ptr, ptr %4, align 8
  %36 = getelementptr inbounds %"struct.cmCTestVC::Revision", ptr %35, i32 0, i32 7
  %37 = call noundef nonnull align 8 dereferenceable(32) ptr @_ZNSt7__cxx1112basic_stringIcSt11char_traitsIcESaIcEEaSERKS4_(ptr noundef nonnull align 8 dereferenceable(32) %34, ptr noundef nonnull align 8 dereferenceable(32) %36)
  ret ptr %5
}

; Function Attrs: mustprogress nounwind uwtable
define linkonce_odr dso_local void @_ZNSt3mapINSt7__cxx1112basic_stringIcSt11char_traitsIcESaIcEEEN9cmCTestP44UserESt4lessIS5_ESaISt4pairIKS5_S7_EEEC2Ev(ptr noundef nonnull align 8 dereferenceable(48) %0) unnamed_addr #5 comdat align 2 {
  %2 = alloca ptr, align 8
  store ptr %0, ptr %2, align 8
  %3 = load ptr, ptr %2, align 8
  %4 = getelementptr inbounds %"class.std::map.9", ptr %3, i32 0, i32 0
  call void @_ZNSt8_Rb_treeINSt7__cxx1112basic_stringIcSt11char_traitsIcESaIcEEESt4pairIKS5_N9cmCTestP44UserEESt10_Select1stISA_ESt4lessIS5_ESaISA_EEC2Ev(ptr noundef nonnull align 8 dereferenceable(48) %4) #3
  ret void
}

; Function Attrs: mustprogress nounwind uwtable
define linkonce_odr dso_local void @_ZNSt6vectorINSt7__cxx1112basic_stringIcSt11char_traitsIcESaIcEEESaIS5_EEC2Ev(ptr noundef nonnull align 8 dereferenceable(24) %0) unnamed_addr #5 comdat align 2 {
  %2 = alloca ptr, align 8
  store ptr %0, ptr %2, align 8
  %3 = load ptr, ptr %2, align 8
  call void @_ZNSt12_Vector_baseINSt7__cxx1112basic_stringIcSt11char_traitsIcESaIcEEESaIS5_EEC2Ev(ptr noundef nonnull align 8 dereferenceable(24) %3) #3
  ret void
}

; Function Attrs: mustprogress uwtable
define dso_local void @_ZN9cmCTestP4C2EP7cmCTestRSo(ptr noundef nonnull align 8 dereferenceable(880) %0, ptr noundef %1, ptr noundef nonnull align 8 dereferenceable(8) %2) unnamed_addr #4 align 2 personality ptr @__gxx_personality_v0 {
  %4 = alloca ptr, align 8
  %5 = alloca ptr, align 8
  %6 = alloca ptr, align 8
  %7 = alloca ptr, align 8
  %8 = alloca i32, align 4
  store ptr %0, ptr %4, align 8
  store ptr %1, ptr %5, align 8
  store ptr %2, ptr %6, align 8
  %9 = load ptr, ptr %4, align 8
  %10 = load ptr, ptr %5, align 8
  %11 = load ptr, ptr %6, align 8
  call void @_ZN15cmCTestGlobalVCC2EP7cmCTestRSo(ptr noundef nonnull align 8 dereferenceable(784) %9, ptr noundef %10, ptr noundef nonnull align 8 dereferenceable(8) %11)
  store ptr getelementptr inbounds ({ [16 x ptr] }, ptr @_ZTV9cmCTestP4, i32 0, i32 0, i32 2), ptr %9, align 8
  %12 = getelementptr inbounds %class.cmCTestP4, ptr %9, i32 0, i32 1
  call void @_ZNSt6vectorINSt7__cxx1112basic_stringIcSt11char_traitsIcESaIcEEESaIS5_EEC2Ev(ptr noundef nonnull align 8 dereferenceable(24) %12) #3
  %13 = getelementptr inbounds %class.cmCTestP4, ptr %9, i32 0, i32 2
  call void @_ZNSt3mapINSt7__cxx1112basic_stringIcSt11char_traitsIcESaIcEEEN9cmCTestP44UserESt4lessIS5_ESaISt4pairIKS5_S7_EEEC2Ev(ptr noundef nonnull align 8 dereferenceable(48) %13) #3
  %14 = getelementptr inbounds %class.cmCTestP4, ptr %9, i32 0, i32 3
  call void @_ZNSt6vectorINSt7__cxx1112basic_stringIcSt11char_traitsIcESaIcEEESaIS5_EEC2Ev(ptr noundef nonnull align 8 dereferenceable(24) %14) #3
  %15 = getelementptr inbounds %class.cmCTestVC, ptr %9, i32 0, i32 6
  %16 = getelementptr inbounds %class.cmCTestGlobalVC, ptr %9, i32 0, i32 4
  %17 = invoke noundef nonnull align 8 dereferenceable(256) ptr @_ZN9cmCTestVC8RevisionaSERKS0_(ptr noundef nonnull align 8 dereferenceable(256) %16, ptr noundef nonnull align 8 dereferenceable(256) %15)
          to label %18 unwind label %19

18:                                               ; preds = %3
  ret void

19:                                               ; preds = %3
  %20 = landingpad { ptr, i32 }
          cleanup
  %21 = extractvalue { ptr, i32 } %20, 0
  store ptr %21, ptr %7, align 8
  %22 = extractvalue { ptr, i32 } %20, 1
  store i32 %22, ptr %8, align 4
  call void @_ZNSt6vectorINSt7__cxx1112basic_stringIcSt11char_traitsIcESaIcEEESaIS5_EED2Ev(ptr noundef nonnull align 8 dereferenceable(24) %14) #3
  call void @_ZNSt3mapINSt7__cxx1112basic_stringIcSt11char_traitsIcESaIcEEEN9cmCTestP44UserESt4lessIS5_ESaISt4pairIKS5_S7_EEED2Ev(ptr noundef nonnull align 8 dereferenceable(48) %13) #3
  call void @_ZNSt6vectorINSt7__cxx1112basic_stringIcSt11char_traitsIcESaIcEEESaIS5_EED2Ev(ptr noundef nonnull align 8 dereferenceable(24) %12) #3
  call void @_ZN15cmCTestGlobalVCD2Ev(ptr noundef nonnull align 8 dereferenceable(784) %9) #3
  br label %23

23:                                               ; preds = %19
  %24 = load ptr, ptr %7, align 8
  %25 = load i32, ptr %8, align 4
  %26 = insertvalue { ptr, i32 } poison, ptr %24, 0
  %27 = insertvalue { ptr, i32 } %26, i32 %25, 1
  resume { ptr, i32 } %27
}