; Function Attrs: mustprogress uwtable
define dso_local void @_ZN9cmCTestP4C2EP7cmCTestRSo(ptr noundef nonnull align 8 dereferenceable(880) %0, ptr noundef %1, ptr noundef nonnull align 8 dereferenceable(8) %2) unnamed_addr #3 align 2 personality ptr @__gxx_personality_v0 {
  tail call void @_ZN15cmCTestGlobalVCC2EP7cmCTestRSo(ptr noundef nonnull align 8 dereferenceable(784) %0, ptr noundef %1, ptr noundef nonnull align 8 dereferenceable(8) %2)
  store ptr getelementptr inbounds ({ [16 x ptr] }, ptr @_ZTV9cmCTestP4, i64 0, i32 0, i64 2), ptr %0, align 8
  %4 = getelementptr inbounds i8, ptr %0, i64 784
  tail call void @llvm.memset.p0.i64(ptr noundef nonnull align 8 dereferenceable(24) %4, i8 0, i64 24, i1 false)
  %5 = getelementptr inbounds i8, ptr %0, i64 816
  store i32 0, ptr %5, align 8
  %6 = getelementptr inbounds i8, ptr %0, i64 824
  store ptr null, ptr %6, align 8
  %7 = getelementptr inbounds i8, ptr %0, i64 832
  store ptr %5, ptr %7, align 8
  %8 = getelementptr inbounds i8, ptr %0, i64 840
  store ptr %5, ptr %8, align 8
  %9 = getelementptr inbounds i8, ptr %0, i64 848
  %10 = getelementptr inbounds i8, ptr %0, i64 120
  %11 = getelementptr inbounds i8, ptr %0, i64 504
  tail call void @llvm.memset.p0.i64(ptr noundef nonnull align 8 dereferenceable(32) %9, i8 0, i64 32, i1 false)
  %12 = invoke noundef nonnull align 8 dereferenceable(32) ptr @_ZNSt7__cxx1112basic_stringIcSt11char_traitsIcESaIcEEaSERKS4_(ptr noundef nonnull align 8 dereferenceable(32) %11, ptr noundef nonnull align 8 dereferenceable(32) %10)
          to label %.noexc unwind label %34

.noexc:                                           ; preds = %3
  %13 = getelementptr inbounds i8, ptr %0, i64 536
  %14 = getelementptr inbounds i8, ptr %0, i64 152
  %15 = invoke noundef nonnull align 8 dereferenceable(32) ptr @_ZNSt7__cxx1112basic_stringIcSt11char_traitsIcESaIcEEaSERKS4_(ptr noundef nonnull align 8 dereferenceable(32) %13, ptr noundef nonnull align 8 dereferenceable(32) %14)
          to label %.noexc4 unwind label %34

.noexc4:                                          ; preds = %.noexc
  %16 = getelementptr inbounds i8, ptr %0, i64 568
  %17 = getelementptr inbounds i8, ptr %0, i64 184
  %18 = invoke noundef nonnull align 8 dereferenceable(32) ptr @_ZNSt7__cxx1112basic_stringIcSt11char_traitsIcESaIcEEaSERKS4_(ptr noundef nonnull align 8 dereferenceable(32) %16, ptr noundef nonnull align 8 dereferenceable(32) %17)
          to label %.noexc5 unwind label %34

.noexc5:                                          ; preds = %.noexc4
  %19 = getelementptr inbounds i8, ptr %0, i64 600
  %20 = getelementptr inbounds i8, ptr %0, i64 216
  %21 = invoke noundef nonnull align 8 dereferenceable(32) ptr @_ZNSt7__cxx1112basic_stringIcSt11char_traitsIcESaIcEEaSERKS4_(ptr noundef nonnull align 8 dereferenceable(32) %19, ptr noundef nonnull align 8 dereferenceable(32) %20)
          to label %.noexc6 unwind label %34

.noexc6:                                          ; preds = %.noexc5
  %22 = getelementptr inbounds i8, ptr %0, i64 632
  %23 = getelementptr inbounds i8, ptr %0, i64 248
  %24 = invoke noundef nonnull align 8 dereferenceable(32) ptr @_ZNSt7__cxx1112basic_stringIcSt11char_traitsIcESaIcEEaSERKS4_(ptr noundef nonnull align 8 dereferenceable(32) %22, ptr noundef nonnull align 8 dereferenceable(32) %23)
          to label %.noexc7 unwind label %34

.noexc7:                                          ; preds = %.noexc6
  %25 = getelementptr inbounds i8, ptr %0, i64 664
  %26 = getelementptr inbounds i8, ptr %0, i64 280
  %27 = invoke noundef nonnull align 8 dereferenceable(32) ptr @_ZNSt7__cxx1112basic_stringIcSt11char_traitsIcESaIcEEaSERKS4_(ptr noundef nonnull align 8 dereferenceable(32) %25, ptr noundef nonnull align 8 dereferenceable(32) %26)
          to label %.noexc8 unwind label %34

.noexc8:                                          ; preds = %.noexc7
  %28 = getelementptr inbounds i8, ptr %0, i64 696
  %29 = getelementptr inbounds i8, ptr %0, i64 312
  %30 = invoke noundef nonnull align 8 dereferenceable(32) ptr @_ZNSt7__cxx1112basic_stringIcSt11char_traitsIcESaIcEEaSERKS4_(ptr noundef nonnull align 8 dereferenceable(32) %28, ptr noundef nonnull align 8 dereferenceable(32) %29)
          to label %.noexc9 unwind label %34

.noexc9:                                          ; preds = %.noexc8
  %31 = getelementptr inbounds i8, ptr %0, i64 728
  %32 = getelementptr inbounds i8, ptr %0, i64 344
  %33 = invoke noundef nonnull align 8 dereferenceable(32) ptr @_ZNSt7__cxx1112basic_stringIcSt11char_traitsIcESaIcEEaSERKS4_(ptr noundef nonnull align 8 dereferenceable(32) %31, ptr noundef nonnull align 8 dereferenceable(32) %32)
          to label %_ZN9cmCTestVC8RevisionaSERKS0_.exit unwind label %34

_ZN9cmCTestVC8RevisionaSERKS0_.exit:              ; preds = %.noexc9
  ret void

34:                                               ; preds = %.noexc9, %.noexc8, %.noexc7, %.noexc6, %.noexc5, %.noexc4, %.noexc, %3
  %35 = landingpad { ptr, i32 }
          cleanup
  %36 = getelementptr inbounds i8, ptr %0, i64 856
  %37 = getelementptr inbounds i8, ptr %0, i64 808
  tail call void @_ZNSt6vectorINSt7__cxx1112basic_stringIcSt11char_traitsIcESaIcEEESaIS5_EED2Ev(ptr noundef nonnull align 8 dereferenceable(24) %36) #16
  tail call void @_ZNSt3mapINSt7__cxx1112basic_stringIcSt11char_traitsIcESaIcEEEN9cmCTestP44UserESt4lessIS5_ESaISt4pairIKS5_S7_EEED2Ev(ptr noundef nonnull align 8 dereferenceable(48) %37) #16
  tail call void @_ZNSt6vectorINSt7__cxx1112basic_stringIcSt11char_traitsIcESaIcEEESaIS5_EED2Ev(ptr noundef nonnull align 8 dereferenceable(24) %4) #16
  tail call void @_ZN15cmCTestGlobalVCD2Ev(ptr noundef nonnull align 8 dereferenceable(784) %0) #16
  resume { ptr, i32 } %35
}